target datalayout = "e-m:e-p270:32:32-p271:32:32-p272:64:64-i64:64-i128:128-f80:128-n8:16:32:64-S128"
target triple = "x86_64-pc-linux-gnu"

%struct._zval_struct = type { %union._zend_value, %union.anon.2, %union.anon.5 }
%union._zend_value = type { i64 }
%union.anon.2 = type { i32 }
%union.anon.5 = type { i32 }
%struct._zend_refcounted_h = type { i32, %union.anon.6 }
%union.anon.6 = type { i32 }
%struct._spl_filesystem_object = type { ptr, ptr, ptr, ptr, ptr, i32, i64, ptr, ptr, %union.anon, %struct._zend_object }
%union.anon = type { %struct.anon }
%struct.anon = type { ptr, ptr, i32, ptr, ptr, ptr, %struct._php_stream_dirent }
%struct._php_stream_dirent = type { [256 x i8], i8 }
%struct._zend_object = type { %struct._zend_refcounted_h, i32, ptr, ptr, ptr, [1 x %struct._zval_struct] }
%struct.anon.0 = type { ptr, ptr, ptr, ptr, %struct._zval_struct, ptr, i64, i64, i64, %struct._zval_struct, ptr, i8, i8, i32 }

; Function Attrs: nounwind uwtable
define internal void @spl_filesystem_file_free_line(ptr noundef %0) #0 {
  %2 = alloca ptr, align 8
  %3 = alloca ptr, align 8
  store ptr %0, ptr %3, align 8
  %4 = load ptr, ptr %3, align 8
  %5 = getelementptr inbounds %struct._spl_filesystem_object, ptr %4, i32 0, i32 9
  %6 = getelementptr inbounds %struct.anon.0, ptr %5, i32 0, i32 5
  %7 = load ptr, ptr %6, align 8
  %8 = icmp ne ptr %7, null
  br i1 %8, label %9, label %17

9:                                                ; preds = %1
  %10 = load ptr, ptr %3, align 8
  %11 = getelementptr inbounds %struct._spl_filesystem_object, ptr %10, i32 0, i32 9
  %12 = getelementptr inbounds %struct.anon.0, ptr %11, i32 0, i32 5
  %13 = load ptr, ptr %12, align 8
  call void @_efree(ptr noundef %13)
  %14 = load ptr, ptr %3, align 8
  %15 = getelementptr inbounds %struct._spl_filesystem_object, ptr %14, i32 0, i32 9
  %16 = getelementptr inbounds %struct.anon.0, ptr %15, i32 0, i32 5
  store ptr null, ptr %16, align 8
  br label %17

17:                                               ; preds = %9, %1
  %18 = load ptr, ptr %3, align 8
  %19 = getelementptr inbounds %struct._spl_filesystem_object, ptr %18, i32 0, i32 9
  %20 = getelementptr inbounds %struct.anon.0, ptr %19, i32 0, i32 4
  store ptr %20, ptr %2, align 8
  %21 = load ptr, ptr %2, align 8
  %22 = getelementptr inbounds %struct._zval_struct, ptr %21, i32 0, i32 1
  %23 = load i8, ptr %22, align 8
  %24 = zext i8 %23 to i32
  %25 = icmp eq i32 %24, 0
  br i1 %25, label %36, label %26

26:                                               ; preds = %17
  %27 = load ptr, ptr %3, align 8
  %28 = getelementptr inbounds %struct._spl_filesystem_object, ptr %27, i32 0, i32 9
  %29 = getelementptr inbounds %struct.anon.0, ptr %28, i32 0, i32 4
  call void @zval_ptr_dtor(ptr noundef %29)
  br label %30

30:                                               ; preds = %26
  %31 = load ptr, ptr %3, align 8
  %32 = getelementptr inbounds %struct._spl_filesystem_object, ptr %31, i32 0, i32 9
  %33 = getelementptr inbounds %struct.anon.0, ptr %32, i32 0, i32 4
  %34 = getelementptr inbounds %struct._zval_struct, ptr %33, i32 0, i32 1
  store i32 0, ptr %34, align 8
  br label %35

35:                                               ; preds = %30
  br label %36

36:                                               ; preds = %35, %17
  ret void
}

; Function Attrs: nounwind uwtable
define internal zeroext i1 @is_line_empty(ptr noundef %0) #0 {
  %2 = alloca ptr, align 8
  %3 = alloca ptr, align 8
  %4 = alloca i64, align 8
  store ptr %0, ptr %2, align 8
  %5 = load ptr, ptr %2, align 8
  %6 = getelementptr inbounds %struct._spl_filesystem_object, ptr %5, i32 0, i32 9
  %7 = getelementptr inbounds %struct.anon.0, ptr %6, i32 0, i32 5
  %8 = load ptr, ptr %7, align 8
  store ptr %8, ptr %3, align 8
  %9 = load ptr, ptr %2, align 8
  %10 = getelementptr inbounds %struct._spl_filesystem_object, ptr %9, i32 0, i32 9
  %11 = getelementptr inbounds %struct.anon.0, ptr %10, i32 0, i32 6
  %12 = load i64, ptr %11, align 8
  store i64 %12, ptr %4, align 8
  %13 = load i64, ptr %4, align 8
  %14 = icmp eq i64 %13, 0
  br i1 %14, label %61, label %15

15:                                               ; preds = %1
  %16 = load ptr, ptr %2, align 8
  %17 = getelementptr inbounds %struct._spl_filesystem_object, ptr %16, i32 0, i32 6
  %18 = load i64, ptr %17, align 8
  %19 = and i64 %18, 8
  %20 = icmp ne i64 %19, 0
  br i1 %20, label %21, label %22

21:                                               ; preds = %15
  br i1 true, label %23, label %59

22:                                               ; preds = %15
  br i1 false, label %23, label %59

23:                                               ; preds = %22, %21
  %24 = load ptr, ptr %2, align 8
  %25 = getelementptr inbounds %struct._spl_filesystem_object, ptr %24, i32 0, i32 6
  %26 = load i64, ptr %25, align 8
  %27 = and i64 %26, 1
  %28 = icmp ne i64 %27, 0
  br i1 %28, label %29, label %30

29:                                               ; preds = %23
  br i1 true, label %31, label %59

30:                                               ; preds = %23
  br i1 false, label %31, label %59

31:                                               ; preds = %30, %29
  %32 = load i64, ptr %4, align 8
  %33 = icmp eq i64 %32, 1
  br i1 %33, label %34, label %40

34:                                               ; preds = %31
  %35 = load ptr, ptr %3, align 8
  %36 = getelementptr inbounds i8, ptr %35, i64 0
  %37 = load i8, ptr %36, align 1
  %38 = sext i8 %37 to i32
  %39 = icmp eq i32 %38, 10
  br i1 %39, label %57, label %40

40:                                               ; preds = %34, %31
  %41 = load i64, ptr %4, align 8
  %42 = icmp eq i64 %41, 2
  br i1 %42, label %43, label %55

43:                                               ; preds = %40
  %44 = load ptr, ptr %3, align 8
  %45 = getelementptr inbounds i8, ptr %44, i64 0
  %46 = load i8, ptr %45, align 1
  %47 = sext i8 %46 to i32
  %48 = icmp eq i32 %47, 13
  br i1 %48, label %49, label %55

49:                                               ; preds = %43
  %50 = load ptr, ptr %3, align 8
  %51 = getelementptr inbounds i8, ptr %50, i64 1
  %52 = load i8, ptr %51, align 1
  %53 = sext i8 %52 to i32
  %54 = icmp eq i32 %53, 10
  br label %55

55:                                               ; preds = %49, %43, %40
  %56 = phi i1 [ false, %43 ], [ false, %40 ], [ %54, %49 ]
  br label %57

57:                                               ; preds = %55, %34
  %58 = phi i1 [ true, %34 ], [ %56, %55 ]
  br label %59

59:                                               ; preds = %57, %30, %29, %22, %21
  %60 = phi i1 [ false, %30 ], [ false, %29 ], [ false, %22 ], [ false, %21 ], [ %58, %57 ]
  br label %61

61:                                               ; preds = %59, %1
  %62 = phi i1 [ true, %1 ], [ %60, %59 ]
  ret i1 %62
}

; Function Attrs: nounwind uwtable
define internal i32 @spl_filesystem_file_read_line(ptr noundef %0, ptr noundef %1) #0 {
  %3 = alloca ptr, align 8
  %4 = alloca ptr, align 8
  %5 = alloca i32, align 4
  store ptr %0, ptr %3, align 8
  store ptr %1, ptr %4, align 8
  %6 = load ptr, ptr %3, align 8
  %7 = load ptr, ptr %4, align 8
  %8 = call i32 @spl_filesystem_file_read_line_ex(ptr noundef %6, ptr noundef %7)
  store i32 %8, ptr %5, align 4
  br label %9

9:                                                ; preds = %25, %2
  %10 = load ptr, ptr %4, align 8
  %11 = getelementptr inbounds %struct._spl_filesystem_object, ptr %10, i32 0, i32 6
  %12 = load i64, ptr %11, align 8
  %13 = and i64 %12, 4
  %14 = icmp ne i64 %13, 0
  br i1 %14, label %15, label %16

15:                                               ; preds = %9
  br i1 true, label %17, label %23

16:                                               ; preds = %9
  br i1 false, label %17, label %23

17:                                               ; preds = %16, %15
  %18 = load i32, ptr %5, align 4
  %19 = icmp eq i32 %18, 0
  br i1 %19, label %20, label %23

20:                                               ; preds = %17
  %21 = load ptr, ptr %4, align 8
  %22 = call zeroext i1 @is_line_empty(ptr noundef %21)
  br label %23

23:                                               ; preds = %20, %17, %16, %15
  %24 = phi i1 [ false, %17 ], [ false, %16 ], [ false, %15 ], [ %22, %20 ]
  br i1 %24, label %25, label %30

25:                                               ; preds = %23
  %26 = load ptr, ptr %4, align 8
  call void @spl_filesystem_file_free_line(ptr noundef %26)
  %27 = load ptr, ptr %3, align 8
  %28 = load ptr, ptr %4, align 8
  %29 = call i32 @spl_filesystem_file_read_line_ex(ptr noundef %27, ptr noundef %28)
  store i32 %29, ptr %5, align 4
  br label %9

30:                                               ; preds = %23
  %31 = load i32, ptr %5, align 4
  ret i32 %31
}