; Function Attrs: nounwind uwtable
define internal fastcc noundef i32 @spl_filesystem_file_read_line(ptr nocapture noundef readonly %0, ptr noundef %1) unnamed_addr #0 {
  %3 = tail call fastcc i32 @spl_filesystem_file_read_line_ex(ptr noundef %0, ptr noundef %1)
  %4 = getelementptr inbounds i8, ptr %1, i64 48
  %5 = load i64, ptr %4, align 8
  %6 = and i64 %5, 4
  %7 = icmp ne i64 %6, 0
  %8 = icmp eq i32 %3, 0
  %or.cond10 = and i1 %8, %7
  br i1 %or.cond10, label %.lr.ph, label %.critedge

.lr.ph:                                           ; preds = %2
  %9 = getelementptr inbounds i8, ptr %1, i64 120
  %10 = getelementptr inbounds i8, ptr %1, i64 128
  %11 = getelementptr inbounds i8, ptr %1, i64 112
  %12 = getelementptr inbounds i8, ptr %1, i64 104
  br label %13

13:                                               ; preds = %.lr.ph, %spl_filesystem_file_free_line.exit
  %14 = phi i64 [ %5, %.lr.ph ], [ %34, %spl_filesystem_file_free_line.exit ]
  %15 = load ptr, ptr %9, align 8
  %16 = load i64, ptr %10, align 8
  %17 = icmp eq i64 %16, 0
  br i1 %17, label %is_line_empty.exit.thread9, label %18

18:                                               ; preds = %13
  %19 = and i64 %14, 9
  %or.cond.not.i = icmp eq i64 %19, 9
  br i1 %or.cond.not.i, label %20, label %.critedge

20:                                               ; preds = %18
  switch i64 %16, label %.critedge [
    i64 1, label %is_line_empty.exit
    i64 2, label %21
  ]

21:                                               ; preds = %20
  %22 = load i8, ptr %15, align 1
  %23 = icmp eq i8 %22, 13
  br i1 %23, label %24, label %.critedge

24:                                               ; preds = %21
  %25 = getelementptr inbounds i8, ptr %15, i64 1
  br label %is_line_empty.exit

is_line_empty.exit:                               ; preds = %20, %24
  %.sink10.i = phi ptr [ %25, %24 ], [ %15, %20 ]
  %26 = load i8, ptr %.sink10.i, align 1
  %27 = icmp eq i8 %26, 10
  br i1 %27, label %is_line_empty.exit.thread9, label %.critedge

is_line_empty.exit.thread9:                       ; preds = %13, %is_line_empty.exit
  %.not.i = icmp eq ptr %15, null
  br i1 %.not.i, label %29, label %28

28:                                               ; preds = %is_line_empty.exit.thread9
  tail call void @_efree(ptr noundef nonnull %15) #18
  store ptr null, ptr %9, align 8
  br label %29

29:                                               ; preds = %28, %is_line_empty.exit.thread9
  %30 = load i8, ptr %11, align 8
  %31 = icmp eq i8 %30, 0
  br i1 %31, label %spl_filesystem_file_free_line.exit, label %32

32:                                               ; preds = %29
  tail call void @zval_ptr_dtor(ptr noundef nonnull %12) #18
  store i32 0, ptr %11, align 8
  br label %spl_filesystem_file_free_line.exit

spl_filesystem_file_free_line.exit:               ; preds = %29, %32
  %33 = tail call fastcc i32 @spl_filesystem_file_read_line_ex(ptr noundef %0, ptr noundef nonnull %1)
  %34 = load i64, ptr %4, align 8
  %35 = and i64 %34, 4
  %36 = icmp ne i64 %35, 0
  %37 = icmp eq i32 %33, 0
  %or.cond = and i1 %37, %36
  br i1 %or.cond, label %13, label %.critedge

.critedge:                                        ; preds = %is_line_empty.exit, %spl_filesystem_file_free_line.exit, %18, %21, %20, %2
  %.0.lcssa = phi i32 [ %3, %2 ], [ 0, %20 ], [ 0, %21 ], [ 0, %18 ], [ %33, %spl_filesystem_file_free_line.exit ], [ 0, %is_line_empty.exit ]
  ret i32 %.0.lcssa
}